target datalayout = "e-m:e-p270:32:32-p271:32:32-p272:64:64-i64:64-i128:128-f80:128-n8:16:32:64-S128"
target triple = "x86_64-unknown-linux-gnu"

%struct.V9fsPath = type { i16, ptr }
%struct.V9fsState = type { %struct.anon, %struct.anon.0, ptr, ptr, %struct.FsContext, ptr, i32, i32, [128 x %struct.V9fsPDU], ptr, %struct.CoRwlock, i32, ptr, %struct.V9fsConf, %struct.stat, i64, %struct.qht, %struct.qht, %struct.qht, i64, i16, i64 }
%struct.anon = type { ptr }
%struct.anon.0 = type { ptr }
%struct.FsContext = type { i32, ptr, i32, ptr, %struct.ExtendedOps, ptr, ptr, i32, i32 }
%struct.ExtendedOps = type { ptr }
%struct.V9fsPDU = type { i32, i16, i8, i8, %struct.CoQueue, ptr, %struct.anon.2, i32 }
%struct.CoQueue = type { %struct.anon.1 }
%struct.anon.1 = type { ptr, ptr }
%struct.anon.2 = type { ptr, ptr }
%struct.CoRwlock = type { %struct.CoMutex, i32, %struct.anon.4 }
%struct.CoMutex = type { i32, ptr, %struct.anon.3, %struct.anon.3, i32, i32, ptr }
%struct.anon.3 = type { ptr }
%struct.anon.4 = type { ptr, ptr }
%struct.V9fsConf = type { ptr, ptr }
%struct.stat = type { i64, i64, i64, i32, i32, i32, i32, i64, i64, i64, i64, %struct.timespec, %struct.timespec, %struct.timespec, [3 x i64] }
%struct.timespec = type { i64, i64 }
%struct.qht = type { ptr, ptr, %struct.QemuMutex, i32 }
%struct.QemuMutex = type { %union.pthread_mutex_t, i8 }
%union.pthread_mutex_t = type { %struct.__pthread_mutex_s }
%struct.__pthread_mutex_s = type { i32, i32, i32, i32, i32, i16, i16, %struct.__pthread_internal_list }
%struct.__pthread_internal_list = type { ptr, ptr }
%struct.V9fsFidState = type { i32, i32, %struct.V9fsPath, %union.V9fsFidOpenState, %union.V9fsFidOpenState, i32, i32, i32, i32, i8, %struct.anon.6, %struct.anon.7 }
%union.V9fsFidOpenState = type { %struct.V9fsDir }
%struct.V9fsDir = type { ptr, i32, %struct.CoMutex, %struct.QemuMutex }
%struct.anon.6 = type { ptr }
%struct.anon.7 = type { ptr }

@.str = private unnamed_addr constant [21 x i8] c"../qemu/hw/9pfs/9p.c\00", align 1
@.str.15 = private unnamed_addr constant [14 x i8] c"!(f->clunked)\00", align 1
@__PRETTY_FUNCTION__.alloc_fid = private unnamed_addr constant [46 x i8] c"V9fsFidState *alloc_fid(V9fsState *, int32_t)\00", align 1

; Function Attrs: nounwind sspstrong uwtable
define internal void @v9fs_readdir_init(i32 noundef %proto_version, ptr noundef %dir) #0 {
entry:
  %proto_version.addr = alloca i32, align 4
  %dir.addr = alloca ptr, align 8
  store i32 %proto_version, ptr %proto_version.addr, align 4
  store ptr %dir, ptr %dir.addr, align 8
  %0 = load i32, ptr %proto_version.addr, align 4
  %1 = load ptr, ptr %dir.addr, align 8
  %proto_version1 = getelementptr inbounds %struct.V9fsDir, ptr %1, i32 0, i32 1
  store i32 %0, ptr %proto_version1, align 8
  %2 = load i32, ptr %proto_version.addr, align 4
  %cmp = icmp eq i32 %2, 1
  br i1 %cmp, label %if.then, label %if.else

if.then:                                          ; preds = %entry
  %3 = load ptr, ptr %dir.addr, align 8
  %readdir_mutex_u = getelementptr inbounds %struct.V9fsDir, ptr %3, i32 0, i32 2
  call void @qemu_co_mutex_init(ptr noundef %readdir_mutex_u)
  br label %if.end

if.else:                                          ; preds = %entry
  %4 = load ptr, ptr %dir.addr, align 8
  %readdir_mutex_L = getelementptr inbounds %struct.V9fsDir, ptr %4, i32 0, i32 3
  call void @qemu_mutex_init(ptr noundef %readdir_mutex_L)
  br label %if.end

if.end:                                           ; preds = %if.else, %if.then
  ret void
}

; Function Attrs: nounwind sspstrong uwtable
define internal ptr @alloc_fid(ptr noundef %s, i32 noundef %fid) #0 {
entry:
  %retval = alloca ptr, align 8
  %s.addr = alloca ptr, align 8
  %fid.addr = alloca i32, align 4
  %f = alloca ptr, align 8
  store ptr %s, ptr %s.addr, align 8
  store i32 %fid, ptr %fid.addr, align 4
  %0 = load ptr, ptr %s.addr, align 8
  %fids = getelementptr inbounds %struct.V9fsState, ptr %0, i32 0, i32 2
  %1 = load ptr, ptr %fids, align 8
  %2 = load i32, ptr %fid.addr, align 4
  %conv = sext i32 %2 to i64
  %3 = inttoptr i64 %conv to ptr
  %call = call ptr @g_hash_table_lookup(ptr noundef %1, ptr noundef %3)
  store ptr %call, ptr %f, align 8
  %4 = load ptr, ptr %f, align 8
  %tobool = icmp ne ptr %4, null
  br i1 %tobool, label %if.then, label %if.end3

if.then:                                          ; preds = %entry
  %5 = load ptr, ptr %f, align 8
  %clunked = getelementptr inbounds %struct.V9fsFidState, ptr %5, i32 0, i32 9
  %6 = load i8, ptr %clunked, align 8
  %tobool1 = trunc i8 %6 to i1
  br i1 %tobool1, label %if.else, label %if.then2

if.then2:                                         ; preds = %if.then
  br label %if.end

if.else:                                          ; preds = %if.then
  call void @__assert_fail(ptr noundef @.str.15, ptr noundef @.str, i32 noundef 321, ptr noundef @__PRETTY_FUNCTION__.alloc_fid) #16
  unreachable

if.end:                                           ; preds = %if.then2
  store ptr null, ptr %retval, align 8
  br label %return

if.end3:                                          ; preds = %entry
  %call4 = call noalias ptr @g_malloc0_n(i64 noundef 1, i64 noundef 288) #20
  store ptr %call4, ptr %f, align 8
  %7 = load i32, ptr %fid.addr, align 4
  %8 = load ptr, ptr %f, align 8
  %fid5 = getelementptr inbounds %struct.V9fsFidState, ptr %8, i32 0, i32 1
  store i32 %7, ptr %fid5, align 4
  %9 = load ptr, ptr %f, align 8
  %fid_type = getelementptr inbounds %struct.V9fsFidState, ptr %9, i32 0, i32 0
  store i32 0, ptr %fid_type, align 8
  %10 = load ptr, ptr %f, align 8
  %ref = getelementptr inbounds %struct.V9fsFidState, ptr %10, i32 0, i32 8
  store i32 1, ptr %ref, align 4
  %11 = load ptr, ptr %f, align 8
  %flags = getelementptr inbounds %struct.V9fsFidState, ptr %11, i32 0, i32 5
  %12 = load i32, ptr %flags, align 8
  %or = or i32 %12, 1
  store i32 %or, ptr %flags, align 8
  %13 = load ptr, ptr %s.addr, align 8
  %fids6 = getelementptr inbounds %struct.V9fsState, ptr %13, i32 0, i32 2
  %14 = load ptr, ptr %fids6, align 8
  %15 = load i32, ptr %fid.addr, align 4
  %conv7 = sext i32 %15 to i64
  %16 = inttoptr i64 %conv7 to ptr
  %17 = load ptr, ptr %f, align 8
  %call8 = call i32 @g_hash_table_insert(ptr noundef %14, ptr noundef %16, ptr noundef %17)
  %18 = load ptr, ptr %s.addr, align 8
  %proto_version = getelementptr inbounds %struct.V9fsState, ptr %18, i32 0, i32 6
  %19 = load i32, ptr %proto_version, align 8
  %20 = load ptr, ptr %f, align 8
  %fs = getelementptr inbounds %struct.V9fsFidState, ptr %20, i32 0, i32 3
  call void @v9fs_readdir_init(i32 noundef %19, ptr noundef %fs)
  %21 = load ptr, ptr %s.addr, align 8
  %proto_version9 = getelementptr inbounds %struct.V9fsState, ptr %21, i32 0, i32 6
  %22 = load i32, ptr %proto_version9, align 8
  %23 = load ptr, ptr %f, align 8
  %fs_reclaim = getelementptr inbounds %struct.V9fsFidState, ptr %23, i32 0, i32 4
  call void @v9fs_readdir_init(i32 noundef %22, ptr noundef %fs_reclaim)
  %24 = load ptr, ptr %f, align 8
  store ptr %24, ptr %retval, align 8
  br label %return

return:                                           ; preds = %if.end3, %if.end
  %25 = load ptr, ptr %retval, align 8
  ret ptr %25
}