; Function Attrs: nounwind sspstrong uwtable
define internal fastcc noundef ptr @alloc_fid(ptr noundef readonly captures(none) %s, i32 noundef %fid) unnamed_addr #0 {
entry:
  %fids = getelementptr inbounds nuw i8, ptr %s, i64 16
  %0 = load ptr, ptr %fids, align 8
  %conv = sext i32 %fid to i64
  %1 = inttoptr i64 %conv to ptr
  %call = tail call ptr @g_hash_table_lookup(ptr noundef %0, ptr noundef %1) #24
  %tobool.not = icmp eq ptr %call, null
  br i1 %tobool.not, label %if.end3, label %if.then

if.then:                                          ; preds = %entry
  %clunked = getelementptr inbounds nuw i8, ptr %call, i64 264
  %2 = load i8, ptr %clunked, align 8
  %tobool1 = trunc i8 %2 to i1
  br i1 %tobool1, label %if.else, label %return

if.else:                                          ; preds = %if.then
  tail call void @__assert_fail(ptr noundef nonnull @.str.15, ptr noundef nonnull @.str, i32 noundef 321, ptr noundef nonnull @__PRETTY_FUNCTION__.alloc_fid) #28
  unreachable

if.end3:                                          ; preds = %entry
  %call4 = tail call noalias dereferenceable_or_null(288) ptr @g_malloc0_n(i64 noundef 1, i64 noundef 288) #31
  %fid5 = getelementptr inbounds nuw i8, ptr %call4, i64 4
  store i32 %fid, ptr %fid5, align 4
  store i32 0, ptr %call4, align 8
  %ref = getelementptr inbounds nuw i8, ptr %call4, i64 260
  store i32 1, ptr %ref, align 4
  %flags = getelementptr inbounds nuw i8, ptr %call4, i64 248
  %3 = load i32, ptr %flags, align 8
  %or = or i32 %3, 1
  store i32 %or, ptr %flags, align 8
  %4 = load ptr, ptr %fids, align 8
  %call8 = tail call i32 @g_hash_table_insert(ptr noundef %4, ptr noundef %1, ptr noundef nonnull %call4) #24
  %proto_version = getelementptr inbounds nuw i8, ptr %s, i64 104
  %5 = load i32, ptr %proto_version, align 8
  %proto_version1.i = getelementptr inbounds nuw i8, ptr %call4, i64 32
  store i32 %5, ptr %proto_version1.i, align 8
  %cmp.i = icmp eq i32 %5, 1
  br i1 %cmp.i, label %if.then.i, label %if.else.i

if.then.i:                                        ; preds = %if.end3
  %readdir_mutex_u.i = getelementptr inbounds nuw i8, ptr %call4, i64 40
  tail call void @qemu_co_mutex_init(ptr noundef nonnull %readdir_mutex_u.i) #24
  br label %v9fs_readdir_init.exit

if.else.i:                                        ; preds = %if.end3
  %readdir_mutex_L.i = getelementptr inbounds nuw i8, ptr %call4, i64 88
  tail call void @qemu_mutex_init(ptr noundef nonnull %readdir_mutex_L.i) #24
  br label %v9fs_readdir_init.exit

v9fs_readdir_init.exit:                           ; preds = %if.then.i, %if.else.i
  %6 = load i32, ptr %proto_version, align 8
  %proto_version1.i15 = getelementptr inbounds nuw i8, ptr %call4, i64 144
  store i32 %6, ptr %proto_version1.i15, align 8
  %cmp.i16 = icmp eq i32 %6, 1
  br i1 %cmp.i16, label %if.then.i19, label %if.else.i17

if.then.i19:                                      ; preds = %v9fs_readdir_init.exit
  %readdir_mutex_u.i20 = getelementptr inbounds nuw i8, ptr %call4, i64 152
  tail call void @qemu_co_mutex_init(ptr noundef nonnull %readdir_mutex_u.i20) #24
  br label %return

if.else.i17:                                      ; preds = %v9fs_readdir_init.exit
  %readdir_mutex_L.i18 = getelementptr inbounds nuw i8, ptr %call4, i64 200
  tail call void @qemu_mutex_init(ptr noundef nonnull %readdir_mutex_L.i18) #24
  br label %return

return:                                           ; preds = %if.else.i17, %if.then.i19, %if.then
  %retval.0 = phi ptr [ null, %if.then ], [ %call4, %if.then.i19 ], [ %call4, %if.else.i17 ]
  ret ptr %retval.0
}